ARM GAS  C:\Users\manko\AppData\Local\Temp\cc52FHRR.s 			page 1


   1              		.syntax unified
   2              		.cpu cortex-m0
   3              		.fpu softvfp
   4              		.eabi_attribute 20, 1
   5              		.eabi_attribute 21, 1
   6              		.eabi_attribute 23, 3
   7              		.eabi_attribute 24, 1
   8              		.eabi_attribute 25, 1
   9              		.eabi_attribute 26, 1
  10              		.eabi_attribute 30, 1
  11              		.eabi_attribute 34, 0
  12              		.eabi_attribute 18, 4
  13              		.thumb
  14              		.syntax unified
  15              		.file	"algorithm.c"
  16              		.text
  17              	.Ltext0:
  18              		.cfi_sections	.debug_frame
  19              		.section	.text.Timer_Handler,"ax",%progbits
  20              		.align	2
  21              		.global	Timer_Handler
  22              		.code	16
  23              		.thumb_func
  24              		.type	Timer_Handler, %function
  25              	Timer_Handler:
  26              	.LFB34:
  27              		.file 1 "algorithm.c"
   1:algorithm.c   **** #include "lab.h"
   2:algorithm.c   **** 
   3:algorithm.c   **** volatile uint8 time = 0;
   4:algorithm.c   **** volatile uint8 direction = 0;
   5:algorithm.c   **** volatile uint8 speed = 0;
   6:algorithm.c   **** 
   7:algorithm.c   **** uint8 value_PWM = 0;
   8:algorithm.c   **** 
   9:algorithm.c   **** uint8 set_pwm(void);
  10:algorithm.c   **** 
  11:algorithm.c   **** extern void(*stage_list[])();
  12:algorithm.c   **** 
  13:algorithm.c   **** const int ROTOR_STAGES_NUMBER = 8;
  14:algorithm.c   **** const int BACK_BUTTON = 2;
  15:algorithm.c   **** const int STOP_FORWARD_BUTTON = 1;
  16:algorithm.c   **** const int ADD_VALUE = 10;
  17:algorithm.c   **** const int SUBSTRACT_VALUE = 10;
  18:algorithm.c   **** const int MAX_SPEED_VALUE = 190;
  19:algorithm.c   **** const int MIN_SPEED_VALUE = 10;
  20:algorithm.c   **** const float MAX_ENCODER_VALUE = 10;
  21:algorithm.c   **** const float MIN_ENCODER_VALUE = 1;
  22:algorithm.c   **** const int MAX_SPEED = 2000;
  23:algorithm.c   **** char stage_rotor[8]={0b0011,0b0010,0b0110,0b0100,0b1100,0b1000,0b1001,0b0001};
  24:algorithm.c   **** 
  25:algorithm.c   **** CY_ISR(Timer_Handler){
  28              		.loc 1 25 0
  29              		.cfi_startproc
  30              		@ args = 0, pretend = 0, frame = 0
  31              		@ frame_needed = 0, uses_anonymous_args = 0
  32 0000 10B5     		push	{r4, lr}
ARM GAS  C:\Users\manko\AppData\Local\Temp\cc52FHRR.s 			page 2


  33              		.cfi_def_cfa_offset 8
  34              		.cfi_offset 4, -8
  35              		.cfi_offset 14, -4
  26:algorithm.c   ****     time++;
  36              		.loc 1 26 0
  37 0002 074A     		ldr	r2, .L3
  38 0004 1378     		ldrb	r3, [r2]
  39 0006 0133     		adds	r3, r3, #1
  40 0008 DBB2     		uxtb	r3, r3
  41 000a 1370     		strb	r3, [r2]
  27:algorithm.c   ****     if(ROTOR_STAGES_NUMBER == time){
  42              		.loc 1 27 0
  43 000c 1378     		ldrb	r3, [r2]
  44 000e 082B     		cmp	r3, #8
  45 0010 02D1     		bne	.L2
  28:algorithm.c   ****             time = 0;
  46              		.loc 1 28 0
  47 0012 0022     		movs	r2, #0
  48 0014 024B     		ldr	r3, .L3
  49 0016 1A70     		strb	r2, [r3]
  50              	.L2:
  29:algorithm.c   ****     }
  30:algorithm.c   ****     Timer_ClearInterrupt(Timer_INTR_MASK_TC);
  51              		.loc 1 30 0
  52 0018 0120     		movs	r0, #1
  53 001a FFF7FEFF 		bl	Timer_ClearInterrupt
  54              	.LVL0:
  31:algorithm.c   **** }
  55              		.loc 1 31 0
  56              		@ sp needed
  57 001e 10BD     		pop	{r4, pc}
  58              	.L4:
  59              		.align	2
  60              	.L3:
  61 0020 00000000 		.word	.LANCHOR0
  62              		.cfi_endproc
  63              	.LFE34:
  64              		.size	Timer_Handler, .-Timer_Handler
  65              		.section	.text.SW_1_Handler,"ax",%progbits
  66              		.align	2
  67              		.global	SW_1_Handler
  68              		.code	16
  69              		.thumb_func
  70              		.type	SW_1_Handler, %function
  71              	SW_1_Handler:
  72              	.LFB35:
  32:algorithm.c   **** 
  33:algorithm.c   **** CY_ISR(SW_1_Handler){
  73              		.loc 1 33 0
  74              		.cfi_startproc
  75              		@ args = 0, pretend = 0, frame = 0
  76              		@ frame_needed = 0, uses_anonymous_args = 0
  77 0000 10B5     		push	{r4, lr}
  78              		.cfi_def_cfa_offset 8
  79              		.cfi_offset 4, -8
  80              		.cfi_offset 14, -4
  34:algorithm.c   ****     direction = !direction;
ARM GAS  C:\Users\manko\AppData\Local\Temp\cc52FHRR.s 			page 3


  81              		.loc 1 34 0
  82 0002 044A     		ldr	r2, .L6
  83 0004 5378     		ldrb	r3, [r2, #1]
  84 0006 5942     		rsbs	r1, r3, #0
  85 0008 4B41     		adcs	r3, r3, r1
  86 000a DBB2     		uxtb	r3, r3
  87 000c 5370     		strb	r3, [r2, #1]
  35:algorithm.c   ****     SW_1_ClearInterrupt();
  88              		.loc 1 35 0
  89 000e FFF7FEFF 		bl	SW_1_ClearInterrupt
  90              	.LVL1:
  36:algorithm.c   **** }
  91              		.loc 1 36 0
  92              		@ sp needed
  93 0012 10BD     		pop	{r4, pc}
  94              	.L7:
  95              		.align	2
  96              	.L6:
  97 0014 00000000 		.word	.LANCHOR0
  98              		.cfi_endproc
  99              	.LFE35:
 100              		.size	SW_1_Handler, .-SW_1_Handler
 101              		.section	.text.SW_2_Handler,"ax",%progbits
 102              		.align	2
 103              		.global	SW_2_Handler
 104              		.code	16
 105              		.thumb_func
 106              		.type	SW_2_Handler, %function
 107              	SW_2_Handler:
 108              	.LFB36:
  37:algorithm.c   **** 
  38:algorithm.c   **** CY_ISR(SW_2_Handler){
 109              		.loc 1 38 0
 110              		.cfi_startproc
 111              		@ args = 0, pretend = 0, frame = 0
 112              		@ frame_needed = 0, uses_anonymous_args = 0
 113 0000 10B5     		push	{r4, lr}
 114              		.cfi_def_cfa_offset 8
 115              		.cfi_offset 4, -8
 116              		.cfi_offset 14, -4
  39:algorithm.c   ****     direction = BACK_BUTTON;
 117              		.loc 1 39 0
 118 0002 0222     		movs	r2, #2
 119 0004 024B     		ldr	r3, .L9
 120 0006 5A70     		strb	r2, [r3, #1]
  40:algorithm.c   ****     SW_2_ClearInterrupt();
 121              		.loc 1 40 0
 122 0008 FFF7FEFF 		bl	SW_2_ClearInterrupt
 123              	.LVL2:
  41:algorithm.c   **** }
 124              		.loc 1 41 0
 125              		@ sp needed
 126 000c 10BD     		pop	{r4, pc}
 127              	.L10:
 128 000e C046     		.align	2
 129              	.L9:
 130 0010 00000000 		.word	.LANCHOR0
ARM GAS  C:\Users\manko\AppData\Local\Temp\cc52FHRR.s 			page 4


 131              		.cfi_endproc
 132              	.LFE36:
 133              		.size	SW_2_Handler, .-SW_2_Handler
 134              		.section	.text.SW_3_Handler,"ax",%progbits
 135              		.align	2
 136              		.global	SW_3_Handler
 137              		.code	16
 138              		.thumb_func
 139              		.type	SW_3_Handler, %function
 140              	SW_3_Handler:
 141              	.LFB37:
  42:algorithm.c   **** 
  43:algorithm.c   **** CY_ISR(SW_3_Handler){
 142              		.loc 1 43 0
 143              		.cfi_startproc
 144              		@ args = 0, pretend = 0, frame = 0
 145              		@ frame_needed = 0, uses_anonymous_args = 0
 146 0000 10B5     		push	{r4, lr}
 147              		.cfi_def_cfa_offset 8
 148              		.cfi_offset 4, -8
 149              		.cfi_offset 14, -4
  44:algorithm.c   ****     if (speed >= MIN_SPEED_VALUE){
 150              		.loc 1 44 0
 151 0002 064B     		ldr	r3, .L13
 152 0004 9B78     		ldrb	r3, [r3, #2]
 153 0006 DBB2     		uxtb	r3, r3
 154 0008 092B     		cmp	r3, #9
 155 000a 04DD     		ble	.L12
  45:algorithm.c   ****         speed -= SUBSTRACT_VALUE;
 156              		.loc 1 45 0
 157 000c 034A     		ldr	r2, .L13
 158 000e 9378     		ldrb	r3, [r2, #2]
 159 0010 0A3B     		subs	r3, r3, #10
 160 0012 DBB2     		uxtb	r3, r3
 161 0014 9370     		strb	r3, [r2, #2]
 162              	.L12:
  46:algorithm.c   ****     } 
  47:algorithm.c   ****     SW_3_ClearInterrupt();
 163              		.loc 1 47 0
 164 0016 FFF7FEFF 		bl	SW_3_ClearInterrupt
 165              	.LVL3:
  48:algorithm.c   **** }
 166              		.loc 1 48 0
 167              		@ sp needed
 168 001a 10BD     		pop	{r4, pc}
 169              	.L14:
 170              		.align	2
 171              	.L13:
 172 001c 00000000 		.word	.LANCHOR0
 173              		.cfi_endproc
 174              	.LFE37:
 175              		.size	SW_3_Handler, .-SW_3_Handler
 176              		.section	.text.SW_4_Handler,"ax",%progbits
 177              		.align	2
 178              		.global	SW_4_Handler
 179              		.code	16
 180              		.thumb_func
ARM GAS  C:\Users\manko\AppData\Local\Temp\cc52FHRR.s 			page 5


 181              		.type	SW_4_Handler, %function
 182              	SW_4_Handler:
 183              	.LFB38:
  49:algorithm.c   **** 
  50:algorithm.c   **** CY_ISR(SW_4_Handler){
 184              		.loc 1 50 0
 185              		.cfi_startproc
 186              		@ args = 0, pretend = 0, frame = 0
 187              		@ frame_needed = 0, uses_anonymous_args = 0
 188 0000 10B5     		push	{r4, lr}
 189              		.cfi_def_cfa_offset 8
 190              		.cfi_offset 4, -8
 191              		.cfi_offset 14, -4
  51:algorithm.c   ****     if (speed <= MAX_SPEED_VALUE){
 192              		.loc 1 51 0
 193 0002 064B     		ldr	r3, .L17
 194 0004 9B78     		ldrb	r3, [r3, #2]
 195 0006 DBB2     		uxtb	r3, r3
 196 0008 BE2B     		cmp	r3, #190
 197 000a 04DC     		bgt	.L16
  52:algorithm.c   ****         speed += ADD_VALUE;
 198              		.loc 1 52 0
 199 000c 034A     		ldr	r2, .L17
 200 000e 9378     		ldrb	r3, [r2, #2]
 201 0010 0A33     		adds	r3, r3, #10
 202 0012 DBB2     		uxtb	r3, r3
 203 0014 9370     		strb	r3, [r2, #2]
 204              	.L16:
  53:algorithm.c   ****     } 
  54:algorithm.c   ****     SW_4_ClearInterrupt();
 205              		.loc 1 54 0
 206 0016 FFF7FEFF 		bl	SW_4_ClearInterrupt
 207              	.LVL4:
  55:algorithm.c   **** }
 208              		.loc 1 55 0
 209              		@ sp needed
 210 001a 10BD     		pop	{r4, pc}
 211              	.L18:
 212              		.align	2
 213              	.L17:
 214 001c 00000000 		.word	.LANCHOR0
 215              		.cfi_endproc
 216              	.LFE38:
 217              		.size	SW_4_Handler, .-SW_4_Handler
 218              		.section	.text.algorithm_init,"ax",%progbits
 219              		.align	2
 220              		.global	algorithm_init
 221              		.code	16
 222              		.thumb_func
 223              		.type	algorithm_init, %function
 224              	algorithm_init:
 225              	.LFB39:
  56:algorithm.c   **** 
  57:algorithm.c   **** void algorithm_init(void){
 226              		.loc 1 57 0
 227              		.cfi_startproc
 228              		@ args = 0, pretend = 0, frame = 0
ARM GAS  C:\Users\manko\AppData\Local\Temp\cc52FHRR.s 			page 6


 229              		@ frame_needed = 0, uses_anonymous_args = 0
 230 0000 10B5     		push	{r4, lr}
 231              		.cfi_def_cfa_offset 8
 232              		.cfi_offset 4, -8
 233              		.cfi_offset 14, -4
  58:algorithm.c   ****     Timer_Start();
 234              		.loc 1 58 0
 235 0002 FFF7FEFF 		bl	Timer_Start
 236              	.LVL5:
  59:algorithm.c   ****     PWM_Start();
 237              		.loc 1 59 0
 238 0006 FFF7FEFF 		bl	PWM_Start
 239              	.LVL6:
  60:algorithm.c   ****     Timer_Int_StartEx(Timer_Handler);
 240              		.loc 1 60 0
 241 000a 0848     		ldr	r0, .L20
 242 000c FFF7FEFF 		bl	Timer_Int_StartEx
 243              	.LVL7:
  61:algorithm.c   ****     SW_Int_1_StartEx(SW_1_Handler);
 244              		.loc 1 61 0
 245 0010 0748     		ldr	r0, .L20+4
 246 0012 FFF7FEFF 		bl	SW_Int_1_StartEx
 247              	.LVL8:
  62:algorithm.c   ****     SW_Int_2_StartEx(SW_2_Handler);
 248              		.loc 1 62 0
 249 0016 0748     		ldr	r0, .L20+8
 250 0018 FFF7FEFF 		bl	SW_Int_2_StartEx
 251              	.LVL9:
  63:algorithm.c   ****     SW_Int_3_StartEx(SW_3_Handler);
 252              		.loc 1 63 0
 253 001c 0648     		ldr	r0, .L20+12
 254 001e FFF7FEFF 		bl	SW_Int_3_StartEx
 255              	.LVL10:
  64:algorithm.c   ****     SW_Int_4_StartEx(SW_4_Handler);
 256              		.loc 1 64 0
 257 0022 0648     		ldr	r0, .L20+16
 258 0024 FFF7FEFF 		bl	SW_Int_4_StartEx
 259              	.LVL11:
  65:algorithm.c   **** }
 260              		.loc 1 65 0
 261              		@ sp needed
 262 0028 10BD     		pop	{r4, pc}
 263              	.L21:
 264 002a C046     		.align	2
 265              	.L20:
 266 002c 00000000 		.word	Timer_Handler
 267 0030 00000000 		.word	SW_1_Handler
 268 0034 00000000 		.word	SW_2_Handler
 269 0038 00000000 		.word	SW_3_Handler
 270 003c 00000000 		.word	SW_4_Handler
 271              		.cfi_endproc
 272              	.LFE39:
 273              		.size	algorithm_init, .-algorithm_init
 274              		.section	.text.encoder_start,"ax",%progbits
 275              		.align	2
 276              		.global	encoder_start
 277              		.code	16
ARM GAS  C:\Users\manko\AppData\Local\Temp\cc52FHRR.s 			page 7


 278              		.thumb_func
 279              		.type	encoder_start, %function
 280              	encoder_start:
 281              	.LFB40:
  66:algorithm.c   **** 
  67:algorithm.c   **** void encoder_start(void){
 282              		.loc 1 67 0
 283              		.cfi_startproc
 284              		@ args = 0, pretend = 0, frame = 0
 285              		@ frame_needed = 0, uses_anonymous_args = 0
 286 0000 10B5     		push	{r4, lr}
 287              		.cfi_def_cfa_offset 8
 288              		.cfi_offset 4, -8
 289              		.cfi_offset 14, -4
  68:algorithm.c   ****     QuadDec_Start();
 290              		.loc 1 68 0
 291 0002 FFF7FEFF 		bl	QuadDec_Start
 292              	.LVL12:
  69:algorithm.c   ****     QuadDec_WriteCounter(0);
 293              		.loc 1 69 0
 294 0006 0020     		movs	r0, #0
 295 0008 FFF7FEFF 		bl	QuadDec_WriteCounter
 296              	.LVL13:
  70:algorithm.c   **** }
 297              		.loc 1 70 0
 298              		@ sp needed
 299 000c 10BD     		pop	{r4, pc}
 300              		.cfi_endproc
 301              	.LFE40:
 302              		.size	encoder_start, .-encoder_start
 303              		.global	__aeabi_i2f
 304              		.global	__aeabi_fcmpgt
 305              		.global	__aeabi_fcmplt
 306 000e C046     		.section	.text.set_pwm,"ax",%progbits
 307              		.align	2
 308              		.global	set_pwm
 309              		.code	16
 310              		.thumb_func
 311              		.type	set_pwm, %function
 312              	set_pwm:
 313              	.LFB41:
  71:algorithm.c   **** 
  72:algorithm.c   **** uint8 set_pwm(void){
 314              		.loc 1 72 0
 315              		.cfi_startproc
 316              		@ args = 0, pretend = 0, frame = 0
 317              		@ frame_needed = 0, uses_anonymous_args = 0
 318 0000 70B5     		push	{r4, r5, r6, lr}
 319              		.cfi_def_cfa_offset 16
 320              		.cfi_offset 4, -16
 321              		.cfi_offset 5, -12
 322              		.cfi_offset 6, -8
 323              		.cfi_offset 14, -4
 324              	.LVL14:
  73:algorithm.c   ****     uint8 value_encoder = 0;
  74:algorithm.c   ****     value_encoder = QuadDec_ReadCounter();
 325              		.loc 1 74 0
ARM GAS  C:\Users\manko\AppData\Local\Temp\cc52FHRR.s 			page 8


 326 0002 FFF7FEFF 		bl	QuadDec_ReadCounter
 327              	.LVL15:
 328 0006 C4B2     		uxtb	r4, r0
 329              	.LVL16:
  75:algorithm.c   ****     if (value_encoder > MAX_ENCODER_VALUE){
 330              		.loc 1 75 0
 331 0008 FF23     		movs	r3, #255
 332 000a 1840     		ands	r0, r3
 333 000c FFF7FEFF 		bl	__aeabi_i2f
 334              	.LVL17:
 335 0010 051C     		adds	r5, r0, #0
 336 0012 0A49     		ldr	r1, .L27
 337 0014 FFF7FEFF 		bl	__aeabi_fcmpgt
 338              	.LVL18:
 339 0018 0028     		cmp	r0, #0
 340 001a 07D1     		bne	.L25
  76:algorithm.c   ****         value_encoder = MAX_ENCODER_VALUE;
  77:algorithm.c   ****     } else 
  78:algorithm.c   ****     if (value_encoder <MIN_ENCODER_VALUE){
 341              		.loc 1 78 0
 342 001c FE21     		movs	r1, #254
 343 001e 8905     		lsls	r1, r1, #22
 344 0020 281C     		adds	r0, r5, #0
 345 0022 FFF7FEFF 		bl	__aeabi_fcmplt
 346              	.LVL19:
 347 0026 0028     		cmp	r0, #0
 348 0028 03D0     		beq	.L24
 349 002a 01E0     		b	.L26
 350              	.L25:
  76:algorithm.c   ****         value_encoder = MAX_ENCODER_VALUE;
 351              		.loc 1 76 0
 352 002c 0A24     		movs	r4, #10
 353              	.LVL20:
 354 002e 00E0     		b	.L24
 355              	.LVL21:
 356              	.L26:
  79:algorithm.c   ****         value_encoder = MIN_ENCODER_VALUE;   
 357              		.loc 1 79 0
 358 0030 0124     		movs	r4, #1
 359              	.LVL22:
 360              	.L24:
  80:algorithm.c   ****     }  
  81:algorithm.c   ****     QuadDec_WriteCounter(value_encoder);
 361              		.loc 1 81 0
 362 0032 2000     		movs	r0, r4
 363 0034 FFF7FEFF 		bl	QuadDec_WriteCounter
 364              	.LVL23:
  82:algorithm.c   ****     return value_encoder;
  83:algorithm.c   **** }
 365              		.loc 1 83 0
 366 0038 2000     		movs	r0, r4
 367              		@ sp needed
 368              	.LVL24:
 369 003a 70BD     		pop	{r4, r5, r6, pc}
 370              	.L28:
 371              		.align	2
 372              	.L27:
ARM GAS  C:\Users\manko\AppData\Local\Temp\cc52FHRR.s 			page 9


 373 003c 00002041 		.word	1092616192
 374              		.cfi_endproc
 375              	.LFE41:
 376              		.size	set_pwm, .-set_pwm
 377              		.section	.text.back_forward_movement,"ax",%progbits
 378              		.align	2
 379              		.global	back_forward_movement
 380              		.code	16
 381              		.thumb_func
 382              		.type	back_forward_movement, %function
 383              	back_forward_movement:
 384              	.LFB42:
  84:algorithm.c   **** 
  85:algorithm.c   **** void back_forward_movement(){
 385              		.loc 1 85 0
 386              		.cfi_startproc
 387              		@ args = 0, pretend = 0, frame = 0
 388              		@ frame_needed = 0, uses_anonymous_args = 0
 389 0000 10B5     		push	{r4, lr}
 390              		.cfi_def_cfa_offset 8
 391              		.cfi_offset 4, -8
 392              		.cfi_offset 14, -4
  86:algorithm.c   ****     if(speed || direction){
 393              		.loc 1 86 0
 394 0002 154B     		ldr	r3, .L34
 395 0004 9B78     		ldrb	r3, [r3, #2]
 396 0006 002B     		cmp	r3, #0
 397 0008 03D1     		bne	.L30
 398              		.loc 1 86 0 is_stmt 0 discriminator 1
 399 000a 134B     		ldr	r3, .L34
 400 000c 5B78     		ldrb	r3, [r3, #1]
 401 000e 002B     		cmp	r3, #0
 402 0010 21D0     		beq	.L29
 403              	.L30:
  87:algorithm.c   ****         Timer_WritePeriod(MAX_SPEED - (speed*10));
 404              		.loc 1 87 0 is_stmt 1
 405 0012 114C     		ldr	r4, .L34
 406 0014 A378     		ldrb	r3, [r4, #2]
 407 0016 0A20     		movs	r0, #10
 408 0018 4042     		rsbs	r0, r0, #0
 409 001a 5843     		muls	r0, r3
 410 001c FA23     		movs	r3, #250
 411 001e DB00     		lsls	r3, r3, #3
 412 0020 9C46     		mov	ip, r3
 413 0022 6044     		add	r0, r0, ip
 414 0024 FFF7FEFF 		bl	Timer_WritePeriod
 415              	.LVL25:
  88:algorithm.c   ****         switch(direction){            case 1:
 416              		.loc 1 88 0
 417 0028 6378     		ldrb	r3, [r4, #1]
 418 002a DBB2     		uxtb	r3, r3
 419 002c 012B     		cmp	r3, #1
 420 002e 02D0     		beq	.L32
 421 0030 022B     		cmp	r3, #2
 422 0032 09D0     		beq	.L33
 423 0034 0FE0     		b	.L29
 424              	.L32:
ARM GAS  C:\Users\manko\AppData\Local\Temp\cc52FHRR.s 			page 10


  89:algorithm.c   ****                 Rotor_Write(stage_rotor[ROTOR_STAGES_NUMBER-time]);
 425              		.loc 1 89 0
 426 0036 084B     		ldr	r3, .L34
 427 0038 1A78     		ldrb	r2, [r3]
 428 003a 0823     		movs	r3, #8
 429 003c 9B1A     		subs	r3, r3, r2
 430 003e 074A     		ldr	r2, .L34+4
 431 0040 D05C     		ldrb	r0, [r2, r3]
 432 0042 FFF7FEFF 		bl	Rotor_Write
 433              	.LVL26:
  90:algorithm.c   ****                 break;
 434              		.loc 1 90 0
 435 0046 06E0     		b	.L29
 436              	.L33:
  91:algorithm.c   ****             case 2:
  92:algorithm.c   ****                 Rotor_Write(stage_rotor[time]);
 437              		.loc 1 92 0
 438 0048 034B     		ldr	r3, .L34
 439 004a 1B78     		ldrb	r3, [r3]
 440 004c DBB2     		uxtb	r3, r3
 441 004e 034A     		ldr	r2, .L34+4
 442 0050 D05C     		ldrb	r0, [r2, r3]
 443 0052 FFF7FEFF 		bl	Rotor_Write
 444              	.LVL27:
 445              	.L29:
  93:algorithm.c   ****                 break;
  94:algorithm.c   ****         }
  95:algorithm.c   ****     }
  96:algorithm.c   **** }
 446              		.loc 1 96 0
 447              		@ sp needed
 448 0056 10BD     		pop	{r4, pc}
 449              	.L35:
 450              		.align	2
 451              	.L34:
 452 0058 00000000 		.word	.LANCHOR0
 453 005c 00000000 		.word	.LANCHOR1
 454              		.cfi_endproc
 455              	.LFE42:
 456              		.size	back_forward_movement, .-back_forward_movement
 457              		.section	.text.algorithm_work_rotor,"ax",%progbits
 458              		.align	2
 459              		.global	algorithm_work_rotor
 460              		.code	16
 461              		.thumb_func
 462              		.type	algorithm_work_rotor, %function
 463              	algorithm_work_rotor:
 464              	.LFB43:
  97:algorithm.c   **** 
  98:algorithm.c   **** void algorithm_work_rotor(void){ 
 465              		.loc 1 98 0
 466              		.cfi_startproc
 467              		@ args = 0, pretend = 0, frame = 0
 468              		@ frame_needed = 0, uses_anonymous_args = 0
 469 0000 10B5     		push	{r4, lr}
 470              		.cfi_def_cfa_offset 8
 471              		.cfi_offset 4, -8
ARM GAS  C:\Users\manko\AppData\Local\Temp\cc52FHRR.s 			page 11


 472              		.cfi_offset 14, -4
  99:algorithm.c   ****     value_PWM = set_pwm()*10;
 473              		.loc 1 99 0
 474 0002 FFF7FEFF 		bl	set_pwm
 475              	.LVL28:
 476 0006 8300     		lsls	r3, r0, #2
 477 0008 C018     		adds	r0, r0, r3
 478 000a 4300     		lsls	r3, r0, #1
 479 000c D8B2     		uxtb	r0, r3
 480 000e 034B     		ldr	r3, .L37
 481 0010 D870     		strb	r0, [r3, #3]
 100:algorithm.c   ****     PWM_WriteCompare(value_PWM);
 482              		.loc 1 100 0
 483 0012 FFF7FEFF 		bl	PWM_WriteCompare
 484              	.LVL29:
 101:algorithm.c   ****     back_forward_movement();
 485              		.loc 1 101 0
 486 0016 FFF7FEFF 		bl	back_forward_movement
 487              	.LVL30:
 102:algorithm.c   **** }...
 488              		.loc 1 102 0
 489              		@ sp needed
 490 001a 10BD     		pop	{r4, pc}
 491              	.L38:
 492              		.align	2
 493              	.L37:
 494 001c 00000000 		.word	.LANCHOR0
 495              		.cfi_endproc
 496              	.LFE43:
 497              		.size	algorithm_work_rotor, .-algorithm_work_rotor
 498              		.global	stage_rotor
 499              		.global	MAX_SPEED
 500              		.global	MIN_ENCODER_VALUE
 501              		.global	MAX_ENCODER_VALUE
 502              		.global	MIN_SPEED_VALUE
 503              		.global	MAX_SPEED_VALUE
 504              		.global	SUBSTRACT_VALUE
 505              		.global	ADD_VALUE
 506              		.global	STOP_FORWARD_BUTTON
 507              		.global	BACK_BUTTON
 508              		.global	ROTOR_STAGES_NUMBER
 509              		.global	value_PWM
 510              		.global	speed
 511              		.global	direction
 512              		.global	time
 513              		.section	.rodata
 514              		.align	2
 515              		.type	MAX_SPEED, %object
 516              		.size	MAX_SPEED, 4
 517              	MAX_SPEED:
 518 0000 D0070000 		.word	2000
 519              		.type	MIN_ENCODER_VALUE, %object
 520              		.size	MIN_ENCODER_VALUE, 4
 521              	MIN_ENCODER_VALUE:
 522 0004 0000803F 		.word	1065353216
 523              		.type	MAX_ENCODER_VALUE, %object
 524              		.size	MAX_ENCODER_VALUE, 4
ARM GAS  C:\Users\manko\AppData\Local\Temp\cc52FHRR.s 			page 12


 525              	MAX_ENCODER_VALUE:
 526 0008 00002041 		.word	1092616192
 527              		.type	MIN_SPEED_VALUE, %object
 528              		.size	MIN_SPEED_VALUE, 4
 529              	MIN_SPEED_VALUE:
 530 000c 0A000000 		.word	10
 531              		.type	MAX_SPEED_VALUE, %object
 532              		.size	MAX_SPEED_VALUE, 4
 533              	MAX_SPEED_VALUE:
 534 0010 BE000000 		.word	190
 535              		.type	SUBSTRACT_VALUE, %object
 536              		.size	SUBSTRACT_VALUE, 4
 537              	SUBSTRACT_VALUE:
 538 0014 0A000000 		.word	10
 539              		.type	ADD_VALUE, %object
 540              		.size	ADD_VALUE, 4
 541              	ADD_VALUE:
 542 0018 0A000000 		.word	10
 543              		.type	STOP_FORWARD_BUTTON, %object
 544              		.size	STOP_FORWARD_BUTTON, 4
 545              	STOP_FORWARD_BUTTON:
 546 001c 01000000 		.word	1
 547              		.type	BACK_BUTTON, %object
 548              		.size	BACK_BUTTON, 4
 549              	BACK_BUTTON:
 550 0020 02000000 		.word	2
 551              		.type	ROTOR_STAGES_NUMBER, %object
 552              		.size	ROTOR_STAGES_NUMBER, 4
 553              	ROTOR_STAGES_NUMBER:
 554 0024 08000000 		.word	8
 555              		.data
 556              		.align	2
 557              		.set	.LANCHOR1,. + 0
 558              		.type	stage_rotor, %object
 559              		.size	stage_rotor, 8
 560              	stage_rotor:
 561 0000 03       		.byte	3
 562 0001 02       		.byte	2
 563 0002 06       		.byte	6
 564 0003 04       		.byte	4
 565 0004 0C       		.byte	12
 566 0005 08       		.byte	8
 567 0006 09       		.byte	9
 568 0007 01       		.byte	1
 569              		.bss
 570              		.set	.LANCHOR0,. + 0
 571              		.type	time, %object
 572              		.size	time, 1
 573              	time:
 574 0000 00       		.space	1
 575              		.type	direction, %object
 576              		.size	direction, 1
 577              	direction:
 578 0001 00       		.space	1
 579              		.type	speed, %object
 580              		.size	speed, 1
 581              	speed:
ARM GAS  C:\Users\manko\AppData\Local\Temp\cc52FHRR.s 			page 13


 582 0002 00       		.space	1
 583              		.type	value_PWM, %object
 584              		.size	value_PWM, 1
 585              	value_PWM:
 586 0003 00       		.space	1
 587              		.text
 588              	.Letext0:
 589              		.file 2 "Generated_Source\\PSoC4/cytypes.h"
 590              		.file 3 "Generated_Source\\PSoC4/Timer.h"
 591              		.file 4 "Generated_Source\\PSoC4/SW_1.h"
 592              		.file 5 "Generated_Source\\PSoC4/SW_2.h"
 593              		.file 6 "Generated_Source\\PSoC4/SW_3.h"
 594              		.file 7 "Generated_Source\\PSoC4/SW_4.h"
 595              		.file 8 "Generated_Source\\PSoC4/PWM.h"
 596              		.file 9 "Generated_Source\\PSoC4/Timer_Int.h"
 597              		.file 10 "Generated_Source\\PSoC4/SW_Int_1.h"
 598              		.file 11 "Generated_Source\\PSoC4/SW_Int_2.h"
 599              		.file 12 "Generated_Source\\PSoC4/SW_Int_3.h"
 600              		.file 13 "Generated_Source\\PSoC4/SW_Int_4.h"
 601              		.file 14 "Generated_Source\\PSoC4/QuadDec.h"
 602              		.file 15 "Generated_Source\\PSoC4/Rotor.h"