ARM GAS  C:\Users\manko\AppData\Local\Temp\ccz0K0nb.s 			page 1


   1              		.syntax unified
   2              		.cpu cortex-m0
   3              		.fpu softvfp
   4              		.eabi_attribute 20, 1
   5              		.eabi_attribute 21, 1
   6              		.eabi_attribute 23, 3
   7              		.eabi_attribute 24, 1
   8              		.eabi_attribute 25, 1
   9              		.eabi_attribute 26, 1
  10              		.eabi_attribute 30, 1
  11              		.eabi_attribute 34, 0
  12              		.eabi_attribute 18, 4
  13              		.thumb
  14              		.syntax unified
  15              		.file	"lcd_traffic_light.c"
  16              		.text
  17              	.Ltext0:
  18              		.cfi_sections	.debug_frame
  19              		.section	.text.Enc_Sw_Handler,"ax",%progbits
  20              		.align	2
  21              		.global	Enc_Sw_Handler
  22              		.code	16
  23              		.thumb_func
  24              		.type	Enc_Sw_Handler, %function
  25              	Enc_Sw_Handler:
  26              	.LFB35:
  27              		.file 1 "lcd_traffic_light.c"
   1:lcd_traffic_light.c **** #include "lab.h"
   2:lcd_traffic_light.c **** #include "stdio.h"
   3:lcd_traffic_light.c **** 
   4:lcd_traffic_light.c **** //–ï–∫—Å–ø–æ—Ä—Ç –∑–º—ñ–Ω–∏—Ö
   5:lcd_traffic_light.c **** extern uint8 sum_time1;
   6:lcd_traffic_light.c **** extern uint8 sum_time2;
   7:lcd_traffic_light.c **** 
   8:lcd_traffic_light.c **** //–ú–∞—Å–∏–≤ —á–∞—Ä—ñ–≤ –¥–ª—è –∑–∞–ø–∏—Å—É –≤ –∫–æ–∂–Ω—É —Å—Ç—Ä—ñ—á–∫—É LCD
   9:lcd_traffic_light.c **** static char buf1[17];
  10:lcd_traffic_light.c **** static char buf2[17];
  11:lcd_traffic_light.c **** 
  12:lcd_traffic_light.c **** extern volatile uint8 time;
  13:lcd_traffic_light.c **** extern volatile uint8 number_algorithm;
  14:lcd_traffic_light.c **** volatile uint8 status_set_color = 0; 
  15:lcd_traffic_light.c **** 
  16:lcd_traffic_light.c **** //–ß–∞—Å –∫–æ–∂–Ω–æ–≥–æ –∫–æ–ª—å–æ—Ä—É
  17:lcd_traffic_light.c **** uint8 time_red = 0;
  18:lcd_traffic_light.c **** uint8 time_yellow = 0;
  19:lcd_traffic_light.c **** uint8 time_green = 0;
  20:lcd_traffic_light.c **** 
  21:lcd_traffic_light.c **** //–ü—Ä–æ—Ç–æ—Ç–∏–ø–∏ —Ñ—É–Ω–∫—Ü—ñ–π
  22:lcd_traffic_light.c **** void lcd_time_color(void);
  23:lcd_traffic_light.c **** void lcd_set_red(void);
  24:lcd_traffic_light.c **** void lcd_set_yellow(void);
  25:lcd_traffic_light.c **** void lcd_set_green(void);
  26:lcd_traffic_light.c **** uint8 set_time(void);
  27:lcd_traffic_light.c **** 
  28:lcd_traffic_light.c **** //–ö–Ω–æ–ø–∫–∞ –µ–Ω–∫–æ–¥–µ—Ä–∞ —è–∫–∞ –≤—Å—Ç–∞–Ω–æ–≤–ª—é—î –µ–∫—Ä–∞–Ω ,—Ç–∞–∫–∏–π —è–∫–∏–π –∫–æ–ª—
  29:lcd_traffic_light.c **** CY_ISR(Enc_Sw_Handler){
  28              		.loc 1 29 0
ARM GAS  C:\Users\manko\AppData\Local\Temp\ccz0K0nb.s 			page 2


  29              		.cfi_startproc
  30              		@ args = 0, pretend = 0, frame = 0
  31              		@ frame_needed = 0, uses_anonymous_args = 0
  32 0000 10B5     		push	{r4, lr}
  33              		.cfi_def_cfa_offset 8
  34              		.cfi_offset 4, -8
  35              		.cfi_offset 14, -4
  30:lcd_traffic_light.c ****     status_set_color++;
  36              		.loc 1 30 0
  37 0002 044A     		ldr	r2, .L2
  38 0004 1378     		ldrb	r3, [r2]
  39 0006 0133     		adds	r3, r3, #1
  40 0008 DBB2     		uxtb	r3, r3
  41 000a 1370     		strb	r3, [r2]
  31:lcd_traffic_light.c ****     Enc_Sw_ClearInterrupt();
  42              		.loc 1 31 0
  43 000c FFF7FEFF 		bl	Enc_Sw_ClearInterrupt
  44              	.LVL0:
  32:lcd_traffic_light.c **** }
  45              		.loc 1 32 0
  46              		@ sp needed
  47 0010 10BD     		pop	{r4, pc}
  48              	.L3:
  49 0012 C046     		.align	2
  50              	.L2:
  51 0014 00000000 		.word	.LANCHOR0
  52              		.cfi_endproc
  53              	.LFE35:
  54              		.size	Enc_Sw_Handler, .-Enc_Sw_Handler
  55              		.section	.text.lcd_init,"ax",%progbits
  56              		.align	2
  57              		.global	lcd_init
  58              		.code	16
  59              		.thumb_func
  60              		.type	lcd_init, %function
  61              	lcd_init:
  62              	.LFB36:
  33:lcd_traffic_light.c **** 
  34:lcd_traffic_light.c **** //–Ü–Ω—ñ—Ü—ñ–∞–ª—ñ–∑–∞—Ü—ñ—è LCD –ø–µ—Ä—à–∏–π –≤–∏–≤—ñ–¥
  35:lcd_traffic_light.c **** void lcd_init(void){
  63              		.loc 1 35 0
  64              		.cfi_startproc
  65              		@ args = 0, pretend = 0, frame = 0
  66              		@ frame_needed = 0, uses_anonymous_args = 0
  67 0000 70B5     		push	{r4, r5, r6, lr}
  68              		.cfi_def_cfa_offset 16
  69              		.cfi_offset 4, -16
  70              		.cfi_offset 5, -12
  71              		.cfi_offset 6, -8
  72              		.cfi_offset 14, -4
  36:lcd_traffic_light.c ****     LCD_Start();
  73              		.loc 1 36 0
  74 0002 FFF7FEFF 		bl	LCD_Start
  75              	.LVL1:
  37:lcd_traffic_light.c ****     LCD_ClearDisplay();
  76              		.loc 1 37 0
  77 0006 0120     		movs	r0, #1
ARM GAS  C:\Users\manko\AppData\Local\Temp\ccz0K0nb.s 			page 3


  78 0008 FFF7FEFF 		bl	LCD_WriteControl
  79              	.LVL2:
  38:lcd_traffic_light.c ****     sprintf(buf1,"Author");
  80              		.loc 1 38 0
  81 000c 0F4C     		ldr	r4, .L5
  82 000e 251D     		adds	r5, r4, #4
  83 0010 0F4B     		ldr	r3, .L5+4
  84 0012 1A68     		ldr	r2, [r3]
  85 0014 6260     		str	r2, [r4, #4]
  86 0016 9A88     		ldrh	r2, [r3, #4]
  87 0018 2281     		strh	r2, [r4, #8]
  88 001a 9B79     		ldrb	r3, [r3, #6]
  89 001c A372     		strb	r3, [r4, #10]
  39:lcd_traffic_light.c ****     LCD_Position(0, 0);
  90              		.loc 1 39 0
  91 001e 0021     		movs	r1, #0
  92 0020 0020     		movs	r0, #0
  93 0022 FFF7FEFF 		bl	LCD_Position
  94              	.LVL3:
  40:lcd_traffic_light.c ****     LCD_PrintString(buf1);
  95              		.loc 1 40 0
  96 0026 2800     		movs	r0, r5
  97 0028 FFF7FEFF 		bl	LCD_PrintString
  98              	.LVL4:
  41:lcd_traffic_light.c ****     //–¢—É—Ç –≤–∏–≤–æ–¥–∏—Ç—å—Å—è —ñ–º—è –∞–≤—Ç–æ—Ä–∞ –ª–∞–±–æ–ª–∞—Ç–æ—Ä–Ω–æ—ó
  42:lcd_traffic_light.c ****     sprintf(buf2," ");
  99              		.loc 1 42 0
 100 002c 2500     		movs	r5, r4
 101 002e 1835     		adds	r5, r5, #24
 102 0030 2023     		movs	r3, #32
 103 0032 2383     		strh	r3, [r4, #24]
  43:lcd_traffic_light.c ****     LCD_Position(1, 0);
 104              		.loc 1 43 0
 105 0034 0021     		movs	r1, #0
 106 0036 0120     		movs	r0, #1
 107 0038 FFF7FEFF 		bl	LCD_Position
 108              	.LVL5:
  44:lcd_traffic_light.c ****     LCD_PrintString(buf2);
 109              		.loc 1 44 0
 110 003c 2800     		movs	r0, r5
 111 003e FFF7FEFF 		bl	LCD_PrintString
 112              	.LVL6:
  45:lcd_traffic_light.c ****     CyDelay(6000);
 113              		.loc 1 45 0
 114 0042 0448     		ldr	r0, .L5+8
 115 0044 FFF7FEFF 		bl	CyDelay
 116              	.LVL7:
  46:lcd_traffic_light.c **** }
 117              		.loc 1 46 0
 118              		@ sp needed
 119 0048 70BD     		pop	{r4, r5, r6, pc}
 120              	.L6:
 121 004a C046     		.align	2
 122              	.L5:
 123 004c 00000000 		.word	.LANCHOR0
 124 0050 00000000 		.word	.LC2
 125 0054 70170000 		.word	6000
ARM GAS  C:\Users\manko\AppData\Local\Temp\ccz0K0nb.s 			page 4


 126              		.cfi_endproc
 127              	.LFE36:
 128              		.size	lcd_init, .-lcd_init
 129              		.section	.text.enc_init,"ax",%progbits
 130              		.align	2
 131              		.global	enc_init
 132              		.code	16
 133              		.thumb_func
 134              		.type	enc_init, %function
 135              	enc_init:
 136              	.LFB37:
  47:lcd_traffic_light.c **** 
  48:lcd_traffic_light.c **** //–Ü–Ω—ñ—Ü—ñ–∞–ª—ñ–∑–∞—Ü—ñ—è –µ–Ω–∫–æ–¥–µ—Ä–∞
  49:lcd_traffic_light.c **** void enc_init(void){
 137              		.loc 1 49 0
 138              		.cfi_startproc
 139              		@ args = 0, pretend = 0, frame = 0
 140              		@ frame_needed = 0, uses_anonymous_args = 0
 141 0000 10B5     		push	{r4, lr}
 142              		.cfi_def_cfa_offset 8
 143              		.cfi_offset 4, -8
 144              		.cfi_offset 14, -4
  50:lcd_traffic_light.c ****     QuadDec_Start();
 145              		.loc 1 50 0
 146 0002 FFF7FEFF 		bl	QuadDec_Start
 147              	.LVL8:
  51:lcd_traffic_light.c ****     QuadDec_WriteCounter(0);  
 148              		.loc 1 51 0
 149 0006 0020     		movs	r0, #0
 150 0008 FFF7FEFF 		bl	QuadDec_WriteCounter
 151              	.LVL9:
  52:lcd_traffic_light.c ****     Enc_Sw_Int_StartEx(Enc_Sw_Handler);
 152              		.loc 1 52 0
 153 000c 0148     		ldr	r0, .L8
 154 000e FFF7FEFF 		bl	Enc_Sw_Int_StartEx
 155              	.LVL10:
  53:lcd_traffic_light.c **** }
 156              		.loc 1 53 0
 157              		@ sp needed
 158 0012 10BD     		pop	{r4, pc}
 159              	.L9:
 160              		.align	2
 161              	.L8:
 162 0014 00000000 		.word	Enc_Sw_Handler
 163              		.cfi_endproc
 164              	.LFE37:
 165              		.size	enc_init, .-enc_init
 166              		.section	.text.lcd_time_color,"ax",%progbits
 167              		.align	2
 168              		.global	lcd_time_color
 169              		.code	16
 170              		.thumb_func
 171              		.type	lcd_time_color, %function
 172              	lcd_time_color:
 173              	.LFB38:
  54:lcd_traffic_light.c **** 
  55:lcd_traffic_light.c **** //–í–∏–≤—ñ–¥ –ø–µ—Ä—à–æ–≥–æ –µ–∫—Ä–∞–Ω—É –∫–æ–ª—å–æ—Ä—ñ–≤
ARM GAS  C:\Users\manko\AppData\Local\Temp\ccz0K0nb.s 			page 5


  56:lcd_traffic_light.c **** //–ü—ñ–¥ –∫–æ–Ω–∂–Ω–∏–º –∫–æ–ª—å–æ—Ä –≤–∏–≤–æ–¥–∏—Ç—å—Å—è —á–∞—Å —Å–≤—ñ—Ç—ñ–Ω–Ω—è ,–ø—ñ—Å–ª—è –Ω–∞–
  57:lcd_traffic_light.c **** void lcd_time_color(void){
 174              		.loc 1 57 0
 175              		.cfi_startproc
 176              		@ args = 0, pretend = 0, frame = 0
 177              		@ frame_needed = 0, uses_anonymous_args = 0
 178 0000 70B5     		push	{r4, r5, r6, lr}
 179              		.cfi_def_cfa_offset 16
 180              		.cfi_offset 4, -16
 181              		.cfi_offset 5, -12
 182              		.cfi_offset 6, -8
 183              		.cfi_offset 14, -4
  58:lcd_traffic_light.c ****     LCD_ClearDisplay();
 184              		.loc 1 58 0
 185 0002 0120     		movs	r0, #1
 186 0004 FFF7FEFF 		bl	LCD_WriteControl
 187              	.LVL11:
  59:lcd_traffic_light.c ****     sprintf(buf1,"Red Yellow Green");
 188              		.loc 1 59 0
 189 0008 344C     		ldr	r4, .L14
 190 000a 354A     		ldr	r2, .L14+4
 191 000c 231D     		adds	r3, r4, #4
 192 000e 23CA     		ldmia	r2!, {r0, r1, r5}
 193 0010 23C3     		stmia	r3!, {r0, r1, r5}
 194 0012 1100     		movs	r1, r2
 195 0014 1268     		ldr	r2, [r2]
 196 0016 1A60     		str	r2, [r3]
 197 0018 0A79     		ldrb	r2, [r1, #4]
 198 001a 1A71     		strb	r2, [r3, #4]
  60:lcd_traffic_light.c ****     LCD_Position(0, 0);
 199              		.loc 1 60 0
 200 001c 0021     		movs	r1, #0
 201 001e 0020     		movs	r0, #0
 202 0020 FFF7FEFF 		bl	LCD_Position
 203              	.LVL12:
  61:lcd_traffic_light.c ****     LCD_PrintString(buf1);
 204              		.loc 1 61 0
 205 0024 201D     		adds	r0, r4, #4
 206 0026 FFF7FEFF 		bl	LCD_PrintString
 207              	.LVL13:
  62:lcd_traffic_light.c ****     //–í–∏–≤–æ–¥–∏—Ç—å—Å—è —Ç—ñ–ª—å–∫–∏ –ø—ñ—Å–ª—è –Ω–∞–∂–∞—Ç—Ç—è –∫–Ω–æ–ø–∫–∏ –ø–µ—Ä–µ–∫–ª—é—á–µ–Ω
  63:lcd_traffic_light.c ****     if(0 == number_algorithm){  
 208              		.loc 1 63 0
 209 002a 2E4B     		ldr	r3, .L14+8
 210 002c 1B78     		ldrb	r3, [r3]
 211 002e 002B     		cmp	r3, #0
 212 0030 53D1     		bne	.L10
  64:lcd_traffic_light.c ****         if(time < time_red){
 213              		.loc 1 64 0
 214 0032 2D4B     		ldr	r3, .L14+12
 215 0034 1B78     		ldrb	r3, [r3]
 216 0036 DBB2     		uxtb	r3, r3
 217 0038 2922     		movs	r2, #41
 218 003a 2849     		ldr	r1, .L14
 219 003c 8A5C     		ldrb	r2, [r1, r2]
 220 003e 9342     		cmp	r3, r2
 221 0040 10D2     		bcs	.L12
ARM GAS  C:\Users\manko\AppData\Local\Temp\ccz0K0nb.s 			page 6


  65:lcd_traffic_light.c ****             sprintf(buf2,"%2d",time_red-time);
 222              		.loc 1 65 0
 223 0042 294B     		ldr	r3, .L14+12
 224 0044 1B78     		ldrb	r3, [r3]
 225 0046 D21A     		subs	r2, r2, r3
 226 0048 0C00     		movs	r4, r1
 227 004a 1834     		adds	r4, r4, #24
 228 004c 2749     		ldr	r1, .L14+16
 229 004e 2000     		movs	r0, r4
 230 0050 FFF7FEFF 		bl	sprintf
 231              	.LVL14:
  66:lcd_traffic_light.c ****             LCD_Position(1, 0);
 232              		.loc 1 66 0
 233 0054 0021     		movs	r1, #0
 234 0056 0120     		movs	r0, #1
 235 0058 FFF7FEFF 		bl	LCD_Position
 236              	.LVL15:
  67:lcd_traffic_light.c ****             LCD_PrintString(buf2);
 237              		.loc 1 67 0
 238 005c 2000     		movs	r0, r4
 239 005e FFF7FEFF 		bl	LCD_PrintString
 240              	.LVL16:
 241 0062 3AE0     		b	.L10
 242              	.L12:
  68:lcd_traffic_light.c ****         }else if(time_red <= time && time < sum_time1) {
 243              		.loc 1 68 0
 244 0064 204B     		ldr	r3, .L14+12
 245 0066 1B78     		ldrb	r3, [r3]
 246 0068 DBB2     		uxtb	r3, r3
 247 006a 9A42     		cmp	r2, r3
 248 006c 17D8     		bhi	.L13
 249              		.loc 1 68 0 is_stmt 0 discriminator 1
 250 006e 1E4B     		ldr	r3, .L14+12
 251 0070 1B78     		ldrb	r3, [r3]
 252 0072 DBB2     		uxtb	r3, r3
 253 0074 1E4A     		ldr	r2, .L14+20
 254 0076 1278     		ldrb	r2, [r2]
 255 0078 9342     		cmp	r3, r2
 256 007a 10D2     		bcs	.L13
  69:lcd_traffic_light.c ****             sprintf(buf2,"%6d",sum_time1-time);
 257              		.loc 1 69 0 is_stmt 1
 258 007c 1A4B     		ldr	r3, .L14+12
 259 007e 1B78     		ldrb	r3, [r3]
 260 0080 D21A     		subs	r2, r2, r3
 261 0082 164C     		ldr	r4, .L14
 262 0084 1834     		adds	r4, r4, #24
 263 0086 1B49     		ldr	r1, .L14+24
 264 0088 2000     		movs	r0, r4
 265 008a FFF7FEFF 		bl	sprintf
 266              	.LVL17:
  70:lcd_traffic_light.c ****             LCD_Position(1, 0);
 267              		.loc 1 70 0
 268 008e 0021     		movs	r1, #0
 269 0090 0120     		movs	r0, #1
 270 0092 FFF7FEFF 		bl	LCD_Position
 271              	.LVL18:
  71:lcd_traffic_light.c ****             LCD_PrintString(buf2);
ARM GAS  C:\Users\manko\AppData\Local\Temp\ccz0K0nb.s 			page 7


 272              		.loc 1 71 0
 273 0096 2000     		movs	r0, r4
 274 0098 FFF7FEFF 		bl	LCD_PrintString
 275              	.LVL19:
 276 009c 1DE0     		b	.L10
 277              	.L13:
  72:lcd_traffic_light.c ****         }else if(sum_time1 <= time && time < sum_time2) {
 278              		.loc 1 72 0
 279 009e 144B     		ldr	r3, .L14+20
 280 00a0 1A78     		ldrb	r2, [r3]
 281 00a2 114B     		ldr	r3, .L14+12
 282 00a4 1B78     		ldrb	r3, [r3]
 283 00a6 DBB2     		uxtb	r3, r3
 284 00a8 9A42     		cmp	r2, r3
 285 00aa 16D8     		bhi	.L10
 286              		.loc 1 72 0 is_stmt 0 discriminator 1
 287 00ac 0E4B     		ldr	r3, .L14+12
 288 00ae 1B78     		ldrb	r3, [r3]
 289 00b0 DBB2     		uxtb	r3, r3
 290 00b2 114A     		ldr	r2, .L14+28
 291 00b4 1278     		ldrb	r2, [r2]
 292 00b6 9342     		cmp	r3, r2
 293 00b8 0FD2     		bcs	.L10
  73:lcd_traffic_light.c ****             sprintf(buf2,"%13d",sum_time2-time);
 294              		.loc 1 73 0 is_stmt 1
 295 00ba 0B4B     		ldr	r3, .L14+12
 296 00bc 1B78     		ldrb	r3, [r3]
 297 00be D21A     		subs	r2, r2, r3
 298 00c0 064C     		ldr	r4, .L14
 299 00c2 1834     		adds	r4, r4, #24
 300 00c4 0D49     		ldr	r1, .L14+32
 301 00c6 2000     		movs	r0, r4
 302 00c8 FFF7FEFF 		bl	sprintf
 303              	.LVL20:
  74:lcd_traffic_light.c ****             LCD_Position(1, 0);
 304              		.loc 1 74 0
 305 00cc 0021     		movs	r1, #0
 306 00ce 0120     		movs	r0, #1
 307 00d0 FFF7FEFF 		bl	LCD_Position
 308              	.LVL21:
  75:lcd_traffic_light.c ****             LCD_PrintString(buf2);
 309              		.loc 1 75 0
 310 00d4 2000     		movs	r0, r4
 311 00d6 FFF7FEFF 		bl	LCD_PrintString
 312              	.LVL22:
 313              	.L10:
  76:lcd_traffic_light.c ****         }
  77:lcd_traffic_light.c ****     }
  78:lcd_traffic_light.c **** }
 314              		.loc 1 78 0
 315              		@ sp needed
 316 00da 70BD     		pop	{r4, r5, r6, pc}
 317              	.L15:
 318              		.align	2
 319              	.L14:
 320 00dc 00000000 		.word	.LANCHOR0
 321 00e0 18000000 		.word	.LC8
ARM GAS  C:\Users\manko\AppData\Local\Temp\ccz0K0nb.s 			page 8


 322 00e4 00000000 		.word	number_algorithm
 323 00e8 00000000 		.word	time
 324 00ec 08000000 		.word	.LC12
 325 00f0 00000000 		.word	sum_time1
 326 00f4 0C000000 		.word	.LC15
 327 00f8 00000000 		.word	sum_time2
 328 00fc 10000000 		.word	.LC18
 329              		.cfi_endproc
 330              	.LFE38:
 331              		.size	lcd_time_color, .-lcd_time_color
 332              		.section	.text.lcd_set_red,"ax",%progbits
 333              		.align	2
 334              		.global	lcd_set_red
 335              		.code	16
 336              		.thumb_func
 337              		.type	lcd_set_red, %function
 338              	lcd_set_red:
 339              	.LFB39:
  79:lcd_traffic_light.c **** 
  80:lcd_traffic_light.c **** //–í–∏–≤–æ–¥–∏—Ç—å—Å—è –ø—ñ—Å–ª—è –ø–µ—Ä—à–æ–≥–æ –Ω–∞–∂–∞—Ç—Ç—è –Ω–∞ –∫–Ω–æ–ø–∫—É –µ–Ω–∫–æ–¥–µ—Ä–∞
  81:lcd_traffic_light.c **** //–ß–µ—Ä–µ–∑ –¥—Ä–∏–±—ñ—â–∞–Ω–Ω—è –∫–Ω–æ–ø–∫–∏ –º–æ–∂–µ –ø–µ—Ä–µ—Å–∫–∞–∫—É–≤–∞—Ç–∏ –ø–æ –º–µ–Ω—é —ñ
  82:lcd_traffic_light.c **** void lcd_set_red(void){
 340              		.loc 1 82 0
 341              		.cfi_startproc
 342              		@ args = 0, pretend = 0, frame = 0
 343              		@ frame_needed = 0, uses_anonymous_args = 0
 344 0000 70B5     		push	{r4, r5, r6, lr}
 345              		.cfi_def_cfa_offset 16
 346              		.cfi_offset 4, -16
 347              		.cfi_offset 5, -12
 348              		.cfi_offset 6, -8
 349              		.cfi_offset 14, -4
  83:lcd_traffic_light.c ****     LCD_ClearDisplay();
 350              		.loc 1 83 0
 351 0002 0120     		movs	r0, #1
 352 0004 FFF7FEFF 		bl	LCD_WriteControl
 353              	.LVL23:
  84:lcd_traffic_light.c ****     sprintf(buf1,"Set red time");
 354              		.loc 1 84 0
 355 0008 0E4C     		ldr	r4, .L17
 356 000a 251D     		adds	r5, r4, #4
 357 000c 0E4B     		ldr	r3, .L17+4
 358 000e 2A00     		movs	r2, r5
 359 0010 43CB     		ldmia	r3!, {r0, r1, r6}
 360 0012 43C2     		stmia	r2!, {r0, r1, r6}
 361 0014 1B78     		ldrb	r3, [r3]
 362 0016 1370     		strb	r3, [r2]
  85:lcd_traffic_light.c ****     LCD_Position(0, 0);
 363              		.loc 1 85 0
 364 0018 0021     		movs	r1, #0
 365 001a 0020     		movs	r0, #0
 366 001c FFF7FEFF 		bl	LCD_Position
 367              	.LVL24:
  86:lcd_traffic_light.c ****     LCD_PrintString(buf1);
 368              		.loc 1 86 0
 369 0020 2800     		movs	r0, r5
 370 0022 FFF7FEFF 		bl	LCD_PrintString
ARM GAS  C:\Users\manko\AppData\Local\Temp\ccz0K0nb.s 			page 9


 371              	.LVL25:
  87:lcd_traffic_light.c ****     sprintf(buf2,"Time = %d",time_red);
 372              		.loc 1 87 0
 373 0026 2923     		movs	r3, #41
 374 0028 E25C     		ldrb	r2, [r4, r3]
 375 002a 1834     		adds	r4, r4, #24
 376 002c 0749     		ldr	r1, .L17+8
 377 002e 2000     		movs	r0, r4
 378 0030 FFF7FEFF 		bl	sprintf
 379              	.LVL26:
  88:lcd_traffic_light.c ****     LCD_Position(1, 0);
 380              		.loc 1 88 0
 381 0034 0021     		movs	r1, #0
 382 0036 0120     		movs	r0, #1
 383 0038 FFF7FEFF 		bl	LCD_Position
 384              	.LVL27:
  89:lcd_traffic_light.c ****     LCD_PrintString(buf2);
 385              		.loc 1 89 0
 386 003c 2000     		movs	r0, r4
 387 003e FFF7FEFF 		bl	LCD_PrintString
 388              	.LVL28:
  90:lcd_traffic_light.c **** }
 389              		.loc 1 90 0
 390              		@ sp needed
 391 0042 70BD     		pop	{r4, r5, r6, pc}
 392              	.L18:
 393              		.align	2
 394              	.L17:
 395 0044 00000000 		.word	.LANCHOR0
 396 0048 2C000000 		.word	.LC23
 397 004c 3C000000 		.word	.LC25
 398              		.cfi_endproc
 399              	.LFE39:
 400              		.size	lcd_set_red, .-lcd_set_red
 401              		.section	.text.lcd_set_green,"ax",%progbits
 402              		.align	2
 403              		.global	lcd_set_green
 404              		.code	16
 405              		.thumb_func
 406              		.type	lcd_set_green, %function
 407              	lcd_set_green:
 408              	.LFB40:
  91:lcd_traffic_light.c **** 
  92:lcd_traffic_light.c **** //–í–∏–≤–æ–¥–∏—Ç—å—Å—è –ø—ñ—Å–ª—è —Ç—Ä–µ—Ç—å–æ–≥–æ –Ω–∞–∂–∞—Ç—Ç—è –Ω–∞ –∫–Ω–æ–ø–∫—É –µ–Ω–∫–æ–¥–µ—Ä–
  93:lcd_traffic_light.c **** void lcd_set_green(void){
 409              		.loc 1 93 0
 410              		.cfi_startproc
 411              		@ args = 0, pretend = 0, frame = 0
 412              		@ frame_needed = 0, uses_anonymous_args = 0
 413 0000 70B5     		push	{r4, r5, r6, lr}
 414              		.cfi_def_cfa_offset 16
 415              		.cfi_offset 4, -16
 416              		.cfi_offset 5, -12
 417              		.cfi_offset 6, -8
 418              		.cfi_offset 14, -4
  94:lcd_traffic_light.c ****     LCD_ClearDisplay();
 419              		.loc 1 94 0
ARM GAS  C:\Users\manko\AppData\Local\Temp\ccz0K0nb.s 			page 10


 420 0002 0120     		movs	r0, #1
 421 0004 FFF7FEFF 		bl	LCD_WriteControl
 422              	.LVL29:
  95:lcd_traffic_light.c ****     sprintf(buf1,"Set green time:");
 423              		.loc 1 95 0
 424 0008 0E4C     		ldr	r4, .L20
 425 000a 251D     		adds	r5, r4, #4
 426 000c 0E4B     		ldr	r3, .L20+4
 427 000e 2A00     		movs	r2, r5
 428 0010 43CB     		ldmia	r3!, {r0, r1, r6}
 429 0012 43C2     		stmia	r2!, {r0, r1, r6}
 430 0014 1B68     		ldr	r3, [r3]
 431 0016 1360     		str	r3, [r2]
  96:lcd_traffic_light.c ****     LCD_Position(0, 0);
 432              		.loc 1 96 0
 433 0018 0021     		movs	r1, #0
 434 001a 0020     		movs	r0, #0
 435 001c FFF7FEFF 		bl	LCD_Position
 436              	.LVL30:
  97:lcd_traffic_light.c ****     LCD_PrintString(buf1);
 437              		.loc 1 97 0
 438 0020 2800     		movs	r0, r5
 439 0022 FFF7FEFF 		bl	LCD_PrintString
 440              	.LVL31:
  98:lcd_traffic_light.c ****     sprintf(buf2,"Time = %d",time_green);
 441              		.loc 1 98 0
 442 0026 2A23     		movs	r3, #42
 443 0028 E25C     		ldrb	r2, [r4, r3]
 444 002a 1834     		adds	r4, r4, #24
 445 002c 0749     		ldr	r1, .L20+8
 446 002e 2000     		movs	r0, r4
 447 0030 FFF7FEFF 		bl	sprintf
 448              	.LVL32:
  99:lcd_traffic_light.c ****     LCD_Position(1, 0);
 449              		.loc 1 99 0
 450 0034 0021     		movs	r1, #0
 451 0036 0120     		movs	r0, #1
 452 0038 FFF7FEFF 		bl	LCD_Position
 453              	.LVL33:
 100:lcd_traffic_light.c ****     LCD_PrintString(buf2);
 454              		.loc 1 100 0
 455 003c 2000     		movs	r0, r4
 456 003e FFF7FEFF 		bl	LCD_PrintString
 457              	.LVL34:
 101:lcd_traffic_light.c **** }
 458              		.loc 1 101 0
 459              		@ sp needed
 460 0042 70BD     		pop	{r4, r5, r6, pc}
 461              	.L21:
 462              		.align	2
 463              	.L20:
 464 0044 00000000 		.word	.LANCHOR0
 465 0048 48000000 		.word	.LC30
 466 004c 3C000000 		.word	.LC25
 467              		.cfi_endproc
 468              	.LFE40:
 469              		.size	lcd_set_green, .-lcd_set_green
ARM GAS  C:\Users\manko\AppData\Local\Temp\ccz0K0nb.s 			page 11


 470              		.section	.text.lcd_set_yellow,"ax",%progbits
 471              		.align	2
 472              		.global	lcd_set_yellow
 473              		.code	16
 474              		.thumb_func
 475              		.type	lcd_set_yellow, %function
 476              	lcd_set_yellow:
 477              	.LFB41:
 102:lcd_traffic_light.c **** 
 103:lcd_traffic_light.c **** //–í–∏–≤–æ–¥–∏—Ç—å—Å—è –ø—ñ—Å–ª—è –¥—Ä—É–≥–æ–≥–æ –Ω–∞–∂–∞—Ç—Ç—è –Ω–∞ –∫–Ω–æ–ø–∫—É –µ–Ω–∫–æ–¥–µ—Ä–∞
 104:lcd_traffic_light.c **** void lcd_set_yellow(void){
 478              		.loc 1 104 0
 479              		.cfi_startproc
 480              		@ args = 0, pretend = 0, frame = 0
 481              		@ frame_needed = 0, uses_anonymous_args = 0
 482 0000 70B5     		push	{r4, r5, r6, lr}
 483              		.cfi_def_cfa_offset 16
 484              		.cfi_offset 4, -16
 485              		.cfi_offset 5, -12
 486              		.cfi_offset 6, -8
 487              		.cfi_offset 14, -4
 105:lcd_traffic_light.c ****     LCD_ClearDisplay();
 488              		.loc 1 105 0
 489 0002 0120     		movs	r0, #1
 490 0004 FFF7FEFF 		bl	LCD_WriteControl
 491              	.LVL35:
 106:lcd_traffic_light.c ****     sprintf(buf1,"Set yellow time:");
 492              		.loc 1 106 0
 493 0008 0F4C     		ldr	r4, .L23
 494 000a 104A     		ldr	r2, .L23+4
 495 000c 231D     		adds	r3, r4, #4
 496 000e 23CA     		ldmia	r2!, {r0, r1, r5}
 497 0010 23C3     		stmia	r3!, {r0, r1, r5}
 498 0012 1100     		movs	r1, r2
 499 0014 1268     		ldr	r2, [r2]
 500 0016 1A60     		str	r2, [r3]
 501 0018 0A79     		ldrb	r2, [r1, #4]
 502 001a 1A71     		strb	r2, [r3, #4]
 107:lcd_traffic_light.c ****     LCD_Position(0, 0);
 503              		.loc 1 107 0
 504 001c 0021     		movs	r1, #0
 505 001e 0020     		movs	r0, #0
 506 0020 FFF7FEFF 		bl	LCD_Position
 507              	.LVL36:
 108:lcd_traffic_light.c ****     LCD_PrintString(buf1);
 508              		.loc 1 108 0
 509 0024 201D     		adds	r0, r4, #4
 510 0026 FFF7FEFF 		bl	LCD_PrintString
 511              	.LVL37:
 109:lcd_traffic_light.c ****     sprintf(buf2,"Time = %d",time_yellow);   
 512              		.loc 1 109 0
 513 002a 2B23     		movs	r3, #43
 514 002c E25C     		ldrb	r2, [r4, r3]
 515 002e 1834     		adds	r4, r4, #24
 516 0030 0749     		ldr	r1, .L23+8
 517 0032 2000     		movs	r0, r4
 518 0034 FFF7FEFF 		bl	sprintf
ARM GAS  C:\Users\manko\AppData\Local\Temp\ccz0K0nb.s 			page 12


 519              	.LVL38:
 110:lcd_traffic_light.c ****     LCD_Position(1, 0);
 520              		.loc 1 110 0
 521 0038 0021     		movs	r1, #0
 522 003a 0120     		movs	r0, #1
 523 003c FFF7FEFF 		bl	LCD_Position
 524              	.LVL39:
 111:lcd_traffic_light.c ****     LCD_PrintString(buf2);
 525              		.loc 1 111 0
 526 0040 2000     		movs	r0, r4
 527 0042 FFF7FEFF 		bl	LCD_PrintString
 528              	.LVL40:
 112:lcd_traffic_light.c **** }
 529              		.loc 1 112 0
 530              		@ sp needed
 531 0046 70BD     		pop	{r4, r5, r6, pc}
 532              	.L24:
 533              		.align	2
 534              	.L23:
 535 0048 00000000 		.word	.LANCHOR0
 536 004c 58000000 		.word	.LC36
 537 0050 3C000000 		.word	.LC25
 538              		.cfi_endproc
 539              	.LFE41:
 540              		.size	lcd_set_yellow, .-lcd_set_yellow
 541              		.section	.text.set_time,"ax",%progbits
 542              		.align	2
 543              		.global	set_time
 544              		.code	16
 545              		.thumb_func
 546              		.type	set_time, %function
 547              	set_time:
 548              	.LFB42:
 113:lcd_traffic_light.c **** 
 114:lcd_traffic_light.c **** //–ê–ª–≥–æ—Ä–∏–º –ø–æ–≤–µ—Ä–Ω–µ–Ω–Ω—è –∑–Ω–∞—á–µ–Ω–Ω—è –∑ –µ–Ω–∫–æ–¥–µ—Ä–∞ ,—è–∫–∏–π –≤—Å—Ç–∞–Ω–æ–≤
 115:lcd_traffic_light.c **** uint8 set_time(void){
 549              		.loc 1 115 0
 550              		.cfi_startproc
 551              		@ args = 0, pretend = 0, frame = 0
 552              		@ frame_needed = 0, uses_anonymous_args = 0
 553 0000 10B5     		push	{r4, lr}
 554              		.cfi_def_cfa_offset 8
 555              		.cfi_offset 4, -8
 556              		.cfi_offset 14, -4
 557              	.LVL41:
 116:lcd_traffic_light.c ****     uint8 value_encoder = 0;
 117:lcd_traffic_light.c ****     //–ó—á–∏—Ç—É–≤–∞–Ω–Ω—è –∑–Ω–∞—á–µ–Ω–Ω—è –∑ –µ–Ω–∫–æ–¥–µ—Ä–∞
 118:lcd_traffic_light.c ****     value_encoder = QuadDec_ReadCounter();
 558              		.loc 1 118 0
 559 0002 FFF7FEFF 		bl	QuadDec_ReadCounter
 560              	.LVL42:
 561 0006 C0B2     		uxtb	r0, r0
 562              	.LVL43:
 119:lcd_traffic_light.c ****     //–û–±–º–µ–∂–µ–Ω–Ω—è –∑–Ω–∞—á–µ–Ω—å
 120:lcd_traffic_light.c ****     if(20 < value_encoder && 100 > value_encoder){
 563              		.loc 1 120 0
 564 0008 0300     		movs	r3, r0
ARM GAS  C:\Users\manko\AppData\Local\Temp\ccz0K0nb.s 			page 13


 565 000a 153B     		subs	r3, r3, #21
 566 000c DBB2     		uxtb	r3, r3
 567 000e 4E2B     		cmp	r3, #78
 568 0010 03D8     		bhi	.L26
 569              	.LVL44:
 121:lcd_traffic_light.c ****         value_encoder = 20;
 122:lcd_traffic_light.c ****         QuadDec_WriteCounter(20);
 570              		.loc 1 122 0
 571 0012 1420     		movs	r0, #20
 572 0014 FFF7FEFF 		bl	QuadDec_WriteCounter
 573              	.LVL45:
 121:lcd_traffic_light.c ****         value_encoder = 20;
 574              		.loc 1 121 0
 575 0018 1420     		movs	r0, #20
 576              	.LVL46:
 577              	.L26:
 123:lcd_traffic_light.c ****     }
 124:lcd_traffic_light.c ****     if(100 < value_encoder){
 578              		.loc 1 124 0
 579 001a 6428     		cmp	r0, #100
 580 001c 03D9     		bls	.L27
 581              	.LVL47:
 125:lcd_traffic_light.c ****         value_encoder = 0;
 126:lcd_traffic_light.c ****         QuadDec_WriteCounter(0); 
 582              		.loc 1 126 0
 583 001e 0020     		movs	r0, #0
 584 0020 FFF7FEFF 		bl	QuadDec_WriteCounter
 585              	.LVL48:
 125:lcd_traffic_light.c ****         value_encoder = 0;
 586              		.loc 1 125 0
 587 0024 0020     		movs	r0, #0
 588              	.LVL49:
 589              	.L27:
 127:lcd_traffic_light.c ****     }    
 128:lcd_traffic_light.c ****     return value_encoder;
 129:lcd_traffic_light.c **** }
 590              		.loc 1 129 0
 591              		@ sp needed
 592 0026 10BD     		pop	{r4, pc}
 593              		.cfi_endproc
 594              	.LFE42:
 595              		.size	set_time, .-set_time
 596              		.section	.text.definition_set_color,"ax",%progbits
 597              		.align	2
 598              		.global	definition_set_color
 599              		.code	16
 600              		.thumb_func
 601              		.type	definition_set_color, %function
 602              	definition_set_color:
 603              	.LFB43:
 130:lcd_traffic_light.c **** 
 131:lcd_traffic_light.c **** //–§—É–Ω–∫—Ü—ñ—è –¥–ª—è –≤–∏–∑–Ω–∞—á–µ–Ω–Ω—è –≤–∏–≤–æ–¥—É –µ–∫—Ä–∞–Ω—É —á–µ—Ä–µ–∑ –Ω–∞–∂–∞—Ç—Ç—è –∫
 132:lcd_traffic_light.c **** //–¢–∞–∫–æ–∂ –≤ —Ñ—É–Ω–∫—Ü—ñ—ó –≤—ñ–¥–±—É–≤–∞—î—Ç—å—Å—è –ø—Ä–∏–∑–Ω–∞—á–µ–Ω–Ω—è —á–∞—Å—É –∫–æ–∂–Ω–æ–
 133:lcd_traffic_light.c **** void definition_set_color(void){
 604              		.loc 1 133 0
 605              		.cfi_startproc
 606              		@ args = 0, pretend = 0, frame = 0
ARM GAS  C:\Users\manko\AppData\Local\Temp\ccz0K0nb.s 			page 14


 607              		@ frame_needed = 0, uses_anonymous_args = 0
 608 0000 10B5     		push	{r4, lr}
 609              		.cfi_def_cfa_offset 8
 610              		.cfi_offset 4, -8
 611              		.cfi_offset 14, -4
 134:lcd_traffic_light.c ****     if(0 == status_set_color){
 612              		.loc 1 134 0
 613 0002 174B     		ldr	r3, .L34
 614 0004 1B78     		ldrb	r3, [r3]
 615 0006 002B     		cmp	r3, #0
 616 0008 02D1     		bne	.L29
 135:lcd_traffic_light.c ****         lcd_time_color();
 617              		.loc 1 135 0
 618 000a FFF7FEFF 		bl	lcd_time_color
 619              	.LVL50:
 620 000e 26E0     		b	.L28
 621              	.L29:
 136:lcd_traffic_light.c ****     }else if(1 == status_set_color){
 622              		.loc 1 136 0
 623 0010 134B     		ldr	r3, .L34
 624 0012 1B78     		ldrb	r3, [r3]
 625 0014 012B     		cmp	r3, #1
 626 0016 07D1     		bne	.L31
 137:lcd_traffic_light.c ****         time_red = set_time();
 627              		.loc 1 137 0
 628 0018 FFF7FEFF 		bl	set_time
 629              	.LVL51:
 630 001c 2923     		movs	r3, #41
 631 001e 104A     		ldr	r2, .L34
 632 0020 D054     		strb	r0, [r2, r3]
 138:lcd_traffic_light.c ****         lcd_set_red();
 633              		.loc 1 138 0
 634 0022 FFF7FEFF 		bl	lcd_set_red
 635              	.LVL52:
 636 0026 1AE0     		b	.L28
 637              	.L31:
 139:lcd_traffic_light.c ****     }else if(2 == status_set_color){
 638              		.loc 1 139 0
 639 0028 0D4B     		ldr	r3, .L34
 640 002a 1B78     		ldrb	r3, [r3]
 641 002c 022B     		cmp	r3, #2
 642 002e 07D1     		bne	.L32
 140:lcd_traffic_light.c ****         time_yellow = set_time();
 643              		.loc 1 140 0
 644 0030 FFF7FEFF 		bl	set_time
 645              	.LVL53:
 646 0034 2B23     		movs	r3, #43
 647 0036 0A4A     		ldr	r2, .L34
 648 0038 D054     		strb	r0, [r2, r3]
 141:lcd_traffic_light.c ****         lcd_set_yellow();
 649              		.loc 1 141 0
 650 003a FFF7FEFF 		bl	lcd_set_yellow
 651              	.LVL54:
 652 003e 0EE0     		b	.L28
 653              	.L32:
 142:lcd_traffic_light.c ****     }else if(3 == status_set_color){
 654              		.loc 1 142 0
ARM GAS  C:\Users\manko\AppData\Local\Temp\ccz0K0nb.s 			page 15


 655 0040 074B     		ldr	r3, .L34
 656 0042 1B78     		ldrb	r3, [r3]
 657 0044 032B     		cmp	r3, #3
 658 0046 07D1     		bne	.L33
 143:lcd_traffic_light.c ****         time_green = set_time();
 659              		.loc 1 143 0
 660 0048 FFF7FEFF 		bl	set_time
 661              	.LVL55:
 662 004c 2A23     		movs	r3, #42
 663 004e 044A     		ldr	r2, .L34
 664 0050 D054     		strb	r0, [r2, r3]
 144:lcd_traffic_light.c ****         lcd_set_green();
 665              		.loc 1 144 0
 666 0052 FFF7FEFF 		bl	lcd_set_green
 667              	.LVL56:
 668 0056 02E0     		b	.L28
 669              	.L33:
 145:lcd_traffic_light.c ****     }else{
 146:lcd_traffic_light.c ****         status_set_color = 0;
 670              		.loc 1 146 0
 671 0058 0022     		movs	r2, #0
 672 005a 014B     		ldr	r3, .L34
 673 005c 1A70     		strb	r2, [r3]
 674              	.L28:
 147:lcd_traffic_light.c ****     } 
 148:lcd_traffic_light.c **** }...
 675              		.loc 1 148 0
 676              		@ sp needed
 677 005e 10BD     		pop	{r4, pc}
 678              	.L35:
 679              		.align	2
 680              	.L34:
 681 0060 00000000 		.word	.LANCHOR0
 682              		.cfi_endproc
 683              	.LFE43:
 684              		.size	definition_set_color, .-definition_set_color
 685              		.global	time_green
 686              		.global	time_yellow
 687              		.global	time_red
 688              		.global	status_set_color
 689              		.section	.rodata.str1.4,"aMS",%progbits,1
 690              		.align	2
 691              	.LC2:
 692 0000 41757468 		.ascii	"Author\000"
 692      6F7200
 693 0007 00       		.space	1
 694              	.LC12:
 695 0008 25326400 		.ascii	"%2d\000"
 696              	.LC15:
 697 000c 25366400 		.ascii	"%6d\000"
 698              	.LC18:
 699 0010 25313364 		.ascii	"%13d\000"
 699      00
 700 0015 000000   		.space	3
 701              	.LC8:
 702 0018 52656420 		.ascii	"Red Yellow Green\000"
 702      59656C6C 
ARM GAS  C:\Users\manko\AppData\Local\Temp\ccz0K0nb.s 			page 16


 702      6F772047 
 702      7265656E 
 702      00
 703 0029 000000   		.space	3
 704              	.LC23:
 705 002c 53657420 		.ascii	"Set red time\000"
 705      72656420 
 705      74696D65 
 705      00
 706 0039 000000   		.space	3
 707              	.LC25:
 708 003c 54696D65 		.ascii	"Time = %d\000"
 708      203D2025 
 708      6400
 709 0046 0000     		.space	2
 710              	.LC30:
 711 0048 53657420 		.ascii	"Set green time:\000"
 711      67726565 
 711      6E207469 
 711      6D653A00 
 712              	.LC36:
 713 0058 53657420 		.ascii	"Set yellow time:\000"
 713      79656C6C 
 713      6F772074 
 713      696D653A 
 713      00
 714              		.bss
 715              		.align	2
 716              		.set	.LANCHOR0,. + 0
 717              		.type	status_set_color, %object
 718              		.size	status_set_color, 1
 719              	status_set_color:
 720 0000 00       		.space	1
 721 0001 000000   		.space	3
 722              		.type	buf1, %object
 723              		.size	buf1, 17
 724              	buf1:
 725 0004 00000000 		.space	17
 725      00000000 
 725      00000000 
 725      00000000 
 725      00
 726 0015 000000   		.space	3
 727              		.type	buf2, %object
 728              		.size	buf2, 17
 729              	buf2:
 730 0018 00000000 		.space	17
 730      00000000 
 730      00000000 
 730      00000000 
 730      00
 731              		.type	time_red, %object
 732              		.size	time_red, 1
 733              	time_red:
 734 0029 00       		.space	1
 735              		.type	time_green, %object
 736              		.size	time_green, 1
ARM GAS  C:\Users\manko\AppData\Local\Temp\ccz0K0nb.s 			page 17


 737              	time_green:
 738 002a 00       		.space	1
 739              		.type	time_yellow, %object
 740              		.size	time_yellow, 1
 741              	time_yellow:
 742 002b 00       		.space	1
 743              		.text
 744              	.Letext0:
 745              		.file 2 "Generated_Source\\PSoC4/Enc_Sw.h"
 746              		.file 3 "Generated_Source\\PSoC4/LCD.h"
 747              		.file 4 "Generated_Source\\PSoC4/CyLib.h"
 748              		.file 5 "Generated_Source\\PSoC4/QuadDec.h"
 749              		.file 6 "Generated_Source\\PSoC4/Enc_Sw_Int.h"
 750              		.file 7 "c:\\program files (x86)\\cypress\\psoc creator\\4.2\\psoc creator\\import\\gnu\\arm\\5.4.
 751              		.file 8 "Generated_Source\\PSoC4/cytypes.h"